target datalayout = "e-m:e-p270:32:32-p271:32:32-p272:64:64-i64:64-i128:128-f80:128-n8:16:32:64-S128"
target triple = "x86_64-pc-linux-gnu"

@_ZL13PROFILE_NAMES = internal constant [14 x ptr] [ptr @.str.5, ptr @.str.6, ptr @.str.7, ptr @.str.5, ptr @.str.8, ptr @.str.5, ptr @.str.9, ptr @.str.10, ptr @.str.11, ptr @.str.12, ptr @.str.13, ptr @.str.14, ptr @.str.15, ptr @.str.16], align 16

; Function Attrs: inlinehint mustprogress nounwind uwtable
define internal noundef signext i8 @_ZL9U_FAILURE10UErrorCode(i32 noundef %0) #1 {
  %2 = alloca i32, align 4
  store i32 %0, ptr %2, align 4, !tbaa !9
  %3 = load i32, ptr %2, align 4, !tbaa !9
  %4 = icmp sgt i32 %3, 0
  %5 = zext i1 %4 to i8
  ret i8 %5
}

; Function Attrs: mustprogress uwtable
define ptr @usprep_openByType_77(i32 noundef %0, ptr noundef %1) #0 {
  %3 = alloca ptr, align 8
  %4 = alloca i32, align 4
  %5 = alloca ptr, align 8
  %6 = alloca i32, align 4
  %7 = alloca i32, align 4
  store i32 %0, ptr %4, align 4, !tbaa !28
  store ptr %1, ptr %5, align 8, !tbaa !8
  %8 = load ptr, ptr %5, align 8, !tbaa !8
  %9 = icmp eq ptr %8, null
  br i1 %9, label %15, label %10

10:                                               ; preds = %2
  %11 = load ptr, ptr %5, align 8, !tbaa !8
  %12 = load i32, ptr %11, align 4, !tbaa !9
  %13 = call noundef signext i8 @_ZL9U_FAILURE10UErrorCode(i32 noundef %12)
  %14 = icmp ne i8 %13, 0
  br i1 %14, label %15, label %16

15:                                               ; preds = %10, %2
  store ptr null, ptr %3, align 8
  br label %33

16:                                               ; preds = %10
  call void @llvm.lifetime.start.p0(i64 4, ptr %6) #13
  %17 = load i32, ptr %4, align 4, !tbaa !28
  store i32 %17, ptr %6, align 4, !tbaa !25
  %18 = load i32, ptr %6, align 4, !tbaa !25
  %19 = icmp slt i32 %18, 0
  br i1 %19, label %23, label %20

20:                                               ; preds = %16
  %21 = load i32, ptr %6, align 4, !tbaa !25
  %22 = icmp sge i32 %21, 14
  br i1 %22, label %23, label %25

23:                                               ; preds = %20, %16
  %24 = load ptr, ptr %5, align 8, !tbaa !8
  store i32 1, ptr %24, align 4, !tbaa !9
  store ptr null, ptr %3, align 8
  store i32 1, ptr %7, align 4
  br label %32

25:                                               ; preds = %20
  %26 = load i32, ptr %6, align 4, !tbaa !25
  %27 = sext i32 %26 to i64
  %28 = getelementptr inbounds [14 x ptr], ptr @_ZL13PROFILE_NAMES, i64 0, i64 %27
  %29 = load ptr, ptr %28, align 8, !tbaa !3
  %30 = load ptr, ptr %5, align 8, !tbaa !8
  %31 = call ptr @usprep_open_77(ptr noundef null, ptr noundef %29, ptr noundef %30)
  store ptr %31, ptr %3, align 8
  store i32 1, ptr %7, align 4
  br label %32

32:                                               ; preds = %25, %23
  call void @llvm.lifetime.end.p0(i64 4, ptr %6) #13
  br label %33

33:                                               ; preds = %32, %15
  %34 = load ptr, ptr %3, align 8
  ret ptr %34
}