; Function Attrs: mustprogress uwtable
define ptr @usprep_openByType_77(i32 noundef %0, ptr noundef %1) local_unnamed_addr #0 {
  %3 = icmp eq ptr %1, null
  br i1 %3, label %14, label %4

4:                                                ; preds = %2
  %5 = load i32, ptr %1, align 4, !tbaa !3
  %6 = icmp slt i32 %5, 1
  br i1 %6, label %7, label %14

7:                                                ; preds = %4
  %or.cond = icmp ugt i32 %0, 13
  br i1 %or.cond, label %8, label %9

8:                                                ; preds = %7
  store i32 1, ptr %1, align 4, !tbaa !3
  br label %14

9:                                                ; preds = %7
  %10 = zext nneg i32 %0 to i64
  %11 = getelementptr inbounds nuw [14 x ptr], ptr @_ZL13PROFILE_NAMES, i64 0, i64 %10
  %12 = load ptr, ptr %11, align 8, !tbaa !35
  %13 = tail call ptr @usprep_open_77(ptr noundef null, ptr noundef %12, ptr noundef nonnull %1)
  br label %14

14:                                               ; preds = %8, %9, %2, %4
  %.0 = phi ptr [ null, %4 ], [ null, %2 ], [ null, %8 ], [ %13, %9 ]
  ret ptr %.0
}